target datalayout = "e-m:e-p270:32:32-p271:32:32-p272:64:64-i64:64-i128:128-f80:128-n8:16:32:64-S128"
target triple = "x86_64-pc-linux-gnu"

%struct.nameData = type { [64 x i8] }
%struct.ReplicationSlot = type { i8, i8, i32, i8, i8, i32, i32, %struct.ReplicationSlotPersistentData, %struct.LWLock, %struct.ConditionVariable, i32, i64, i64, i64, i64, i64 }
%struct.ReplicationSlotPersistentData = type { %struct.nameData, i32, i32, i32, i32, i64, i32, i64, i64, i8, %struct.nameData, i8, i8 }
%struct.LWLock = type { i16, %struct.pg_atomic_uint32, %struct.proclist_head }
%struct.pg_atomic_uint32 = type { i32 }
%struct.proclist_head = type { i32, i32 }
%struct.ConditionVariable = type { i8, %struct.proclist_head }
%struct.LogicalDecodingContext = type { ptr, ptr, ptr, ptr, ptr, i8, %struct.OutputPluginCallbacks, %struct.OutputPluginOptions, ptr, ptr, ptr, ptr, ptr, ptr, ptr, i8, i8, i8, i8, i8, i64, i32, i8, i8 }
%struct.OutputPluginCallbacks = type { ptr, ptr, ptr, ptr, ptr, ptr, ptr, ptr, ptr, ptr, ptr, ptr, ptr, ptr, ptr, ptr, ptr, ptr, ptr, ptr, ptr }
%struct.OutputPluginOptions = type { i32, i8 }
%struct.LogicalErrorCallbackState = type { ptr, ptr, i64 }
%struct.ErrorContextCallback = type { ptr, ptr, ptr }
%struct.XLogReaderState = type { %struct.XLogReaderRoutine, i64, ptr, i64, i64, i64, i64, i64, i64, i64, i64, ptr, ptr, i64, i8, ptr, ptr, ptr, ptr, ptr, i32, %struct.WALSegmentContext, %struct.WALOpenSegment, i32, i64, i32, i64, i32, i64, i32, ptr, i32, ptr, i8, i8 }
%struct.XLogReaderRoutine = type { ptr, ptr, ptr }
%struct.WALSegmentContext = type { [1024 x i8], i32 }
%struct.WALOpenSegment = type { i32, i64, i32 }
%struct.__jmp_buf_tag = type { [8 x i64], i32, %struct.__sigset_t }
%struct.__sigset_t = type { [16 x i64] }

@.str.1 = private unnamed_addr constant [10 x i8] c"logical.c\00", align 1
@MyReplicationSlot = external global ptr, align 8
@InterruptPending = external global i32, align 4
@error_context_stack = external global ptr, align 8
@PG_exception_stack = external global ptr, align 8
@.str.27 = private unnamed_addr constant [47 x i8] c"could not find record for logical decoding: %s\00", align 1
@__func__.LogicalReplicationSlotHasPendingWal = private unnamed_addr constant [36 x i8] c"LogicalReplicationSlotHasPendingWal\00", align 1
@.str.69 = private unnamed_addr constant [9 x i8] c"shutdown\00", align 1

; Function Attrs: nounwind uwtable
define internal void @shutdown_cb_wrapper(ptr noundef %0) #0 {
  %2 = alloca ptr, align 8
  %3 = alloca %struct.LogicalErrorCallbackState, align 8
  %4 = alloca %struct.ErrorContextCallback, align 8
  store ptr %0, ptr %2, align 8
  call void @llvm.lifetime.start.p0(i64 24, ptr %3) #10
  call void @llvm.lifetime.start.p0(i64 24, ptr %4) #10
  %5 = load ptr, ptr %2, align 8
  %6 = getelementptr inbounds nuw %struct.LogicalErrorCallbackState, ptr %3, i32 0, i32 0
  store ptr %5, ptr %6, align 8
  %7 = getelementptr inbounds nuw %struct.LogicalErrorCallbackState, ptr %3, i32 0, i32 1
  store ptr @.str.69, ptr %7, align 8
  %8 = getelementptr inbounds nuw %struct.LogicalErrorCallbackState, ptr %3, i32 0, i32 2
  store i64 0, ptr %8, align 8
  %9 = getelementptr inbounds nuw %struct.ErrorContextCallback, ptr %4, i32 0, i32 1
  store ptr @output_plugin_error_callback, ptr %9, align 8
  %10 = getelementptr inbounds nuw %struct.ErrorContextCallback, ptr %4, i32 0, i32 2
  store ptr %3, ptr %10, align 8
  %11 = load ptr, ptr @error_context_stack, align 8
  %12 = getelementptr inbounds nuw %struct.ErrorContextCallback, ptr %4, i32 0, i32 0
  store ptr %11, ptr %12, align 8
  store ptr %4, ptr @error_context_stack, align 8
  %13 = load ptr, ptr %2, align 8
  %14 = getelementptr inbounds nuw %struct.LogicalDecodingContext, ptr %13, i32 0, i32 18
  store i8 0, ptr %14, align 1
  %15 = load ptr, ptr %2, align 8
  %16 = getelementptr inbounds nuw %struct.LogicalDecodingContext, ptr %15, i32 0, i32 22
  store i8 0, ptr %16, align 4
  %17 = load ptr, ptr %2, align 8
  %18 = getelementptr inbounds nuw %struct.LogicalDecodingContext, ptr %17, i32 0, i32 6
  %19 = getelementptr inbounds nuw %struct.OutputPluginCallbacks, ptr %18, i32 0, i32 7
  %20 = load ptr, ptr %19, align 8
  %21 = load ptr, ptr %2, align 8
  call void %20(ptr noundef %21)
  %22 = getelementptr inbounds nuw %struct.ErrorContextCallback, ptr %4, i32 0, i32 0
  %23 = load ptr, ptr %22, align 8
  store ptr %23, ptr @error_context_stack, align 8
  call void @llvm.lifetime.end.p0(i64 24, ptr %4) #10
  call void @llvm.lifetime.end.p0(i64 24, ptr %3) #10
  ret void
}

; Function Attrs: nounwind uwtable
define dso_local void @FreeDecodingContext(ptr noundef %0) #0 {
  %2 = alloca ptr, align 8
  store ptr %0, ptr %2, align 8
  %3 = load ptr, ptr %2, align 8
  %4 = getelementptr inbounds nuw %struct.LogicalDecodingContext, ptr %3, i32 0, i32 6
  %5 = getelementptr inbounds nuw %struct.OutputPluginCallbacks, ptr %4, i32 0, i32 7
  %6 = load ptr, ptr %5, align 8
  %7 = icmp ne ptr %6, null
  br i1 %7, label %8, label %10

8:                                                ; preds = %1
  %9 = load ptr, ptr %2, align 8
  call void @shutdown_cb_wrapper(ptr noundef %9)
  br label %10

10:                                               ; preds = %8, %1
  %11 = load ptr, ptr %2, align 8
  %12 = getelementptr inbounds nuw %struct.LogicalDecodingContext, ptr %11, i32 0, i32 3
  %13 = load ptr, ptr %12, align 8
  call void @ReorderBufferFree(ptr noundef %13)
  %14 = load ptr, ptr %2, align 8
  %15 = getelementptr inbounds nuw %struct.LogicalDecodingContext, ptr %14, i32 0, i32 4
  %16 = load ptr, ptr %15, align 8
  call void @FreeSnapshotBuilder(ptr noundef %16)
  %17 = load ptr, ptr %2, align 8
  %18 = getelementptr inbounds nuw %struct.LogicalDecodingContext, ptr %17, i32 0, i32 2
  %19 = load ptr, ptr %18, align 8
  call void @XLogReaderFree(ptr noundef %19)
  %20 = load ptr, ptr %2, align 8
  %21 = getelementptr inbounds nuw %struct.LogicalDecodingContext, ptr %20, i32 0, i32 0
  %22 = load ptr, ptr %21, align 8
  call void @MemoryContextDelete(ptr noundef %22)
  ret void
}

; Function Attrs: nounwind uwtable
define dso_local zeroext i1 @LogicalReplicationSlotHasPendingWal(i64 noundef %0) #0 {
  %2 = alloca i64, align 8
  %3 = alloca i8, align 1
  %4 = alloca ptr, align 8
  %5 = alloca ptr, align 8
  %6 = alloca [1 x %struct.__jmp_buf_tag], align 16
  %7 = alloca i8, align 1
  %8 = alloca ptr, align 8
  %9 = alloca %struct.XLogReaderRoutine, align 8
  %10 = alloca ptr, align 8
  %11 = alloca ptr, align 8
  store i64 %0, ptr %2, align 8
  call void @llvm.lifetime.start.p0(i64 1, ptr %3) #10
  store i8 0, ptr %3, align 1
  br label %12

12:                                               ; preds = %1
  call void @llvm.lifetime.start.p0(i64 8, ptr %4) #10
  %13 = load ptr, ptr @PG_exception_stack, align 8
  store ptr %13, ptr %4, align 8
  call void @llvm.lifetime.start.p0(i64 8, ptr %5) #10
  %14 = load ptr, ptr @error_context_stack, align 8
  store ptr %14, ptr %5, align 8
  call void @llvm.lifetime.start.p0(i64 200, ptr %6) #10
  call void @llvm.lifetime.start.p0(i64 1, ptr %7) #10
  store i8 0, ptr %7, align 1
  %15 = getelementptr inbounds [1 x %struct.__jmp_buf_tag], ptr %6, i64 0, i64 0
  %16 = call i32 @__sigsetjmp(ptr noundef %15, i32 noundef 0) #11
  %17 = icmp eq i32 %16, 0
  br i1 %17, label %18, label %89

18:                                               ; preds = %12
  store ptr %6, ptr @PG_exception_stack, align 8
  call void @llvm.lifetime.start.p0(i64 8, ptr %8) #10
  %19 = getelementptr inbounds nuw %struct.XLogReaderRoutine, ptr %9, i32 0, i32 0
  store ptr @read_local_xlog_page, ptr %19, align 8
  %20 = getelementptr inbounds nuw %struct.XLogReaderRoutine, ptr %9, i32 0, i32 1
  store ptr @wal_segment_open, ptr %20, align 8
  %21 = getelementptr inbounds nuw %struct.XLogReaderRoutine, ptr %9, i32 0, i32 2
  store ptr @wal_segment_close, ptr %21, align 8
  %22 = call ptr @CreateDecodingContext(i64 noundef 0, ptr noundef null, i1 noundef zeroext true, ptr noundef %9, ptr noundef null, ptr noundef null, ptr noundef null)
  store ptr %22, ptr %8, align 8
  %23 = load ptr, ptr %8, align 8
  %24 = getelementptr inbounds nuw %struct.LogicalDecodingContext, ptr %23, i32 0, i32 2
  %25 = load ptr, ptr %24, align 8
  %26 = load ptr, ptr @MyReplicationSlot, align 8
  %27 = getelementptr inbounds nuw %struct.ReplicationSlot, ptr %26, i32 0, i32 7
  %28 = getelementptr inbounds nuw %struct.ReplicationSlotPersistentData, ptr %27, i32 0, i32 5
  %29 = load i64, ptr %28, align 8
  call void @XLogBeginRead(ptr noundef %25, i64 noundef %29)
  call void @InvalidateSystemCaches()
  br label %30

30:                                               ; preds = %86, %18
  %31 = load i8, ptr %3, align 1, !range !6, !noundef !7
  %32 = trunc i8 %31 to i1
  br i1 %32, label %41, label %33

33:                                               ; preds = %30
  %34 = load ptr, ptr %8, align 8
  %35 = getelementptr inbounds nuw %struct.LogicalDecodingContext, ptr %34, i32 0, i32 2
  %36 = load ptr, ptr %35, align 8
  %37 = getelementptr inbounds nuw %struct.XLogReaderState, ptr %36, i32 0, i32 4
  %38 = load i64, ptr %37, align 8
  %39 = load i64, ptr %2, align 8
  %40 = icmp ult i64 %38, %39
  br label %41

41:                                               ; preds = %33, %30
  %42 = phi i1 [ false, %30 ], [ %40, %33 ]
  br i1 %42, label %43, label %87

43:                                               ; preds = %41
  call void @llvm.lifetime.start.p0(i64 8, ptr %10) #10
  call void @llvm.lifetime.start.p0(i64 8, ptr %11) #10
  store ptr null, ptr %11, align 8
  %44 = load ptr, ptr %8, align 8
  %45 = getelementptr inbounds nuw %struct.LogicalDecodingContext, ptr %44, i32 0, i32 2
  %46 = load ptr, ptr %45, align 8
  %47 = call ptr @XLogReadRecord(ptr noundef %46, ptr noundef %11)
  store ptr %47, ptr %10, align 8
  %48 = load ptr, ptr %11, align 8
  %49 = icmp ne ptr %48, null
  br i1 %49, label %50, label %62

50:                                               ; preds = %43
  br label %51

51:                                               ; preds = %50
  br i1 true, label %52, label %54

52:                                               ; preds = %51
  %53 = call zeroext i1 @errstart_cold(i32 noundef 21, ptr noundef null) #9
  br i1 %53, label %56, label %59

54:                                               ; preds = %51
  %55 = call zeroext i1 @errstart(i32 noundef 21, ptr noundef null)
  br i1 %55, label %56, label %59

56:                                               ; preds = %54, %52
  %57 = load ptr, ptr %11, align 8
  %58 = call i32 (ptr, ...) @errmsg_internal(ptr noundef @.str.27, ptr noundef %57)
  call void @errfinish(ptr noundef @.str.1, i32 noundef 2003, ptr noundef @__func__.LogicalReplicationSlotHasPendingWal)
  br label %59

59:                                               ; preds = %56, %54, %52
  unreachable

60:                                               ; No predecessors!
  br label %61

61:                                               ; preds = %60
  br label %62

62:                                               ; preds = %61, %43
  %63 = load ptr, ptr %10, align 8
  %64 = icmp ne ptr %63, null
  br i1 %64, label %65, label %70

65:                                               ; preds = %62
  %66 = load ptr, ptr %8, align 8
  %67 = load ptr, ptr %8, align 8
  %68 = getelementptr inbounds nuw %struct.LogicalDecodingContext, ptr %67, i32 0, i32 2
  %69 = load ptr, ptr %68, align 8
  call void @LogicalDecodingProcessRecord(ptr noundef %66, ptr noundef %69)
  br label %70

70:                                               ; preds = %65, %62
  %71 = load ptr, ptr %8, align 8
  %72 = getelementptr inbounds nuw %struct.LogicalDecodingContext, ptr %71, i32 0, i32 23
  %73 = load i8, ptr %72, align 1, !range !6, !noundef !7
  %74 = trunc i8 %73 to i1
  %75 = zext i1 %74 to i8
  store i8 %75, ptr %3, align 1
  br label %76

76:                                               ; preds = %70
  %77 = load volatile i32, ptr @InterruptPending, align 4
  %78 = icmp ne i32 %77, 0
  %79 = zext i1 %78 to i32
  %80 = sext i32 %79 to i64
  %81 = call i64 @llvm.expect.i64(i64 %80, i64 0)
  %82 = icmp ne i64 %81, 0
  br i1 %82, label %83, label %84

83:                                               ; preds = %76
  call void @ProcessInterrupts()
  br label %84

84:                                               ; preds = %83, %76
  br label %85

85:                                               ; preds = %84
  br label %86

86:                                               ; preds = %85
  call void @llvm.lifetime.end.p0(i64 8, ptr %11) #10
  call void @llvm.lifetime.end.p0(i64 8, ptr %10) #10
  br label %30, !llvm.loop !20

87:                                               ; preds = %41
  %88 = load ptr, ptr %8, align 8
  call void @FreeDecodingContext(ptr noundef %88)
  call void @InvalidateSystemCaches()
  call void @llvm.lifetime.end.p0(i64 8, ptr %8) #10
  br label %92

89:                                               ; preds = %12
  %90 = load ptr, ptr %4, align 8
  store ptr %90, ptr @PG_exception_stack, align 8
  %91 = load ptr, ptr %5, align 8
  store ptr %91, ptr @error_context_stack, align 8
  call void @InvalidateSystemCaches()
  call void @pg_re_throw() #12
  unreachable

92:                                               ; preds = %87
  %93 = load i8, ptr %7, align 1, !range !6, !noundef !7
  %94 = trunc i8 %93 to i1
  br i1 %94, label %95, label %96

95:                                               ; preds = %92
  call void @pg_re_throw() #12
  unreachable

96:                                               ; preds = %92
  %97 = load ptr, ptr %4, align 8
  store ptr %97, ptr @PG_exception_stack, align 8
  %98 = load ptr, ptr %5, align 8
  store ptr %98, ptr @error_context_stack, align 8
  call void @llvm.lifetime.end.p0(i64 1, ptr %7) #10
  call void @llvm.lifetime.end.p0(i64 200, ptr %6) #10
  call void @llvm.lifetime.end.p0(i64 8, ptr %5) #10
  call void @llvm.lifetime.end.p0(i64 8, ptr %4) #10
  br label %99

99:                                               ; preds = %96
  br label %100

100:                                              ; preds = %99
  %101 = load i8, ptr %3, align 1, !range !6, !noundef !7
  %102 = trunc i8 %101 to i1
  call void @llvm.lifetime.end.p0(i64 1, ptr %3) #10
  ret i1 %102
}