; Function Attrs: nounwind uwtable
define dso_local noundef zeroext i1 @LogicalReplicationSlotHasPendingWal(i64 noundef %0) local_unnamed_addr #0 {
  %2 = alloca %struct.LogicalErrorCallbackState, align 8
  %3 = alloca %struct.ErrorContextCallback, align 8
  %4 = alloca [1 x %struct.__jmp_buf_tag], align 16
  %5 = alloca %struct.XLogReaderRoutine, align 8
  %6 = alloca ptr, align 8
  %7 = load ptr, ptr @PG_exception_stack, align 8
  %8 = load ptr, ptr @error_context_stack, align 8
  call void @llvm.lifetime.start.p0(i64 200, ptr nonnull %4) #10
  %9 = call i32 @__sigsetjmp(ptr noundef nonnull %4, i32 noundef 0) #12
  %10 = icmp eq i32 %9, 0
  br i1 %10, label %11, label %59

11:                                               ; preds = %1
  store ptr %4, ptr @PG_exception_stack, align 8
  store ptr @read_local_xlog_page, ptr %5, align 8
  %12 = getelementptr inbounds nuw i8, ptr %5, i64 8
  store ptr @wal_segment_open, ptr %12, align 8
  %13 = getelementptr inbounds nuw i8, ptr %5, i64 16
  store ptr @wal_segment_close, ptr %13, align 8
  %14 = call ptr @CreateDecodingContext(i64 noundef 0, ptr noundef null, i1 noundef zeroext true, ptr noundef nonnull %5, ptr noundef null, ptr noundef null, ptr noundef null)
  %15 = getelementptr inbounds nuw i8, ptr %14, i64 16
  %16 = load ptr, ptr %15, align 8
  %17 = load ptr, ptr @MyReplicationSlot, align 8
  %18 = getelementptr inbounds nuw i8, ptr %17, i64 104
  %19 = load i64, ptr %18, align 8
  call void @XLogBeginRead(ptr noundef %16, i64 noundef %19) #10
  call void @InvalidateSystemCaches() #10
  %20 = getelementptr inbounds nuw i8, ptr %14, i64 301
  br label %21

21:                                               ; preds = %11, %41
  %22 = load ptr, ptr %15, align 8
  %23 = getelementptr inbounds nuw i8, ptr %22, i64 48
  %24 = load i64, ptr %23, align 8
  %25 = icmp ult i64 %24, %0
  br i1 %25, label %26, label %.critedge

26:                                               ; preds = %21
  call void @llvm.lifetime.start.p0(i64 8, ptr nonnull %6) #10
  store ptr null, ptr %6, align 8
  %27 = call ptr @XLogReadRecord(ptr noundef nonnull %22, ptr noundef nonnull %6) #10
  %28 = load ptr, ptr %6, align 8
  %.not = icmp eq ptr %28, null
  br i1 %.not, label %33, label %29

29:                                               ; preds = %26
  %30 = call zeroext i1 @errstart_cold(i32 noundef 21, ptr noundef null) #11
  call void @llvm.assume(i1 %30)
  %31 = load ptr, ptr %6, align 8
  %32 = call i32 (ptr, ...) @errmsg_internal(ptr noundef nonnull @.str.27, ptr noundef %31) #10
  call void @errfinish(ptr noundef nonnull @.str.1, i32 noundef 2003, ptr noundef nonnull @__func__.LogicalReplicationSlotHasPendingWal) #10
  unreachable

33:                                               ; preds = %26
  %.not15 = icmp eq ptr %27, null
  br i1 %.not15, label %36, label %34

34:                                               ; preds = %33
  %35 = load ptr, ptr %15, align 8
  call void @LogicalDecodingProcessRecord(ptr noundef nonnull %14, ptr noundef %35) #10
  br label %36

36:                                               ; preds = %34, %33
  %37 = load i8, ptr %20, align 1, !range !8, !noundef !9
  %38 = trunc nuw i8 %37 to i1
  %39 = load volatile i32, ptr @InterruptPending, align 4
  %.not16 = icmp eq i32 %39, 0
  br i1 %.not16, label %41, label %40, !prof !11

40:                                               ; preds = %36
  call void @ProcessInterrupts() #10
  br label %41

41:                                               ; preds = %40, %36
  call void @llvm.lifetime.end.p0(i64 8, ptr nonnull %6) #10
  br i1 %38, label %.critedge, label %21, !llvm.loop !21

.critedge:                                        ; preds = %41, %21
  %42 = getelementptr inbounds nuw i8, ptr %14, i64 104
  %43 = load ptr, ptr %42, align 8
  %.not.i = icmp eq ptr %43, null
  br i1 %.not.i, label %FreeDecodingContext.exit, label %44

44:                                               ; preds = %.critedge
  call void @llvm.lifetime.start.p0(i64 24, ptr nonnull %2) #10
  call void @llvm.lifetime.start.p0(i64 24, ptr nonnull %3) #10
  store ptr %14, ptr %2, align 8
  %45 = getelementptr inbounds nuw i8, ptr %2, i64 8
  store ptr @.str.69, ptr %45, align 8
  %46 = getelementptr inbounds nuw i8, ptr %2, i64 16
  store i64 0, ptr %46, align 8
  %47 = getelementptr inbounds nuw i8, ptr %3, i64 8
  store ptr @output_plugin_error_callback, ptr %47, align 8
  %48 = getelementptr inbounds nuw i8, ptr %3, i64 16
  store ptr %2, ptr %48, align 8
  %49 = load ptr, ptr @error_context_stack, align 8
  store ptr %49, ptr %3, align 8
  store ptr %3, ptr @error_context_stack, align 8
  %50 = getelementptr inbounds nuw i8, ptr %14, i64 283
  store i8 0, ptr %50, align 1
  %51 = getelementptr inbounds nuw i8, ptr %14, i64 300
  store i8 0, ptr %51, align 4
  call void %43(ptr noundef nonnull %14) #10
  %52 = load ptr, ptr %3, align 8
  store ptr %52, ptr @error_context_stack, align 8
  call void @llvm.lifetime.end.p0(i64 24, ptr nonnull %3) #10
  call void @llvm.lifetime.end.p0(i64 24, ptr nonnull %2) #10
  br label %FreeDecodingContext.exit

FreeDecodingContext.exit:                         ; preds = %.critedge, %44
  %53 = getelementptr inbounds nuw i8, ptr %14, i64 24
  %54 = load ptr, ptr %53, align 8
  call void @ReorderBufferFree(ptr noundef %54) #10
  %55 = getelementptr inbounds nuw i8, ptr %14, i64 32
  %56 = load ptr, ptr %55, align 8
  call void @FreeSnapshotBuilder(ptr noundef %56) #10
  %57 = load ptr, ptr %15, align 8
  call void @XLogReaderFree(ptr noundef %57) #10
  %58 = load ptr, ptr %14, align 8
  call void @MemoryContextDelete(ptr noundef %58) #10
  call void @InvalidateSystemCaches() #10
  store ptr %7, ptr @PG_exception_stack, align 8
  store ptr %8, ptr @error_context_stack, align 8
  call void @llvm.lifetime.end.p0(i64 200, ptr nonnull %4) #10
  ret i1 %25

59:                                               ; preds = %1
  store ptr %7, ptr @PG_exception_stack, align 8
  store ptr %8, ptr @error_context_stack, align 8
  call void @InvalidateSystemCaches() #10
  call void @pg_re_throw() #13
  unreachable
}